target datalayout = "e-m:e-p270:32:32-p271:32:32-p272:64:64-i64:64-i128:128-f80:128-n8:16:32:64-S128"
target triple = "x86_64-pc-linux-gnu"

%struct.lean_object = type { i32, i32 }

@l_Lake_Toml_timeTailFn_timeOffsetFn___closed__1 = internal global ptr null, align 8

; Function Attrs: alwaysinline nounwind uwtable
define internal void @lean_dec_ref(ptr noundef %0) #1 {
  %2 = alloca ptr, align 8
  store ptr %0, ptr %2, align 8, !tbaa !8
  %3 = load ptr, ptr %2, align 8, !tbaa !8
  %4 = getelementptr inbounds nuw %struct.lean_object, ptr %3, i32 0, i32 0
  %5 = load i32, ptr %4, align 4, !tbaa !21
  %6 = icmp sgt i32 %5, 1
  %7 = zext i1 %6 to i32
  %8 = sext i32 %7 to i64
  %9 = call i64 @llvm.expect.i64(i64 %8, i64 1)
  %10 = icmp ne i64 %9, 0
  br i1 %10, label %11, label %16

11:                                               ; preds = %1
  %12 = load ptr, ptr %2, align 8, !tbaa !8
  %13 = getelementptr inbounds nuw %struct.lean_object, ptr %12, i32 0, i32 0
  %14 = load i32, ptr %13, align 4, !tbaa !21
  %15 = add i32 %14, -1
  store i32 %15, ptr %13, align 4, !tbaa !21
  br label %24

16:                                               ; preds = %1
  %17 = load ptr, ptr %2, align 8, !tbaa !8
  %18 = getelementptr inbounds nuw %struct.lean_object, ptr %17, i32 0, i32 0
  %19 = load i32, ptr %18, align 4, !tbaa !21
  %20 = icmp ne i32 %19, 0
  br i1 %20, label %21, label %23

21:                                               ; preds = %16
  %22 = load ptr, ptr %2, align 8, !tbaa !8
  call void @lean_dec_ref_cold(ptr noundef %22)
  br label %23

23:                                               ; preds = %21, %16
  br label %24

24:                                               ; preds = %23, %11
  ret void
}

; Function Attrs: alwaysinline nounwind uwtable
define internal zeroext i1 @lean_is_scalar(ptr noundef %0) #1 {
  %2 = alloca ptr, align 8
  store ptr %0, ptr %2, align 8, !tbaa !8
  %3 = load ptr, ptr %2, align 8, !tbaa !8
  %4 = ptrtoint ptr %3 to i64
  %5 = and i64 %4, 1
  %6 = icmp eq i64 %5, 1
  ret i1 %6
}

; Function Attrs: inlinehint nounwind uwtable
define internal ptr @lean_box(i64 noundef %0) #0 {
  %2 = alloca i64, align 8
  store i64 %0, ptr %2, align 8, !tbaa !12
  %3 = load i64, ptr %2, align 8, !tbaa !12
  %4 = shl i64 %3, 1
  %5 = or i64 %4, 1
  %6 = inttoptr i64 %5 to ptr
  ret ptr %6
}

; Function Attrs: alwaysinline nounwind uwtable
define internal void @lean_dec(ptr noundef %0) #1 {
  %2 = alloca ptr, align 8
  store ptr %0, ptr %2, align 8, !tbaa !8
  %3 = load ptr, ptr %2, align 8, !tbaa !8
  %4 = call zeroext i1 @lean_is_scalar(ptr noundef %3)
  br i1 %4, label %7, label %5

5:                                                ; preds = %1
  %6 = load ptr, ptr %2, align 8, !tbaa !8
  call void @lean_dec_ref(ptr noundef %6)
  br label %7

7:                                                ; preds = %5, %1
  ret void
}

; Function Attrs: inlinehint nounwind uwtable
define internal zeroext i8 @lean_uint32_dec_eq(i32 noundef %0, i32 noundef %1) #0 {
  %3 = alloca i32, align 4
  %4 = alloca i32, align 4
  store i32 %0, ptr %3, align 4, !tbaa !4
  store i32 %1, ptr %4, align 4, !tbaa !4
  %5 = load i32, ptr %3, align 4, !tbaa !4
  %6 = load i32, ptr %4, align 4, !tbaa !4
  %7 = icmp eq i32 %5, %6
  %8 = zext i1 %7 to i32
  %9 = trunc i32 %8 to i8
  ret i8 %9
}

; Function Attrs: nounwind uwtable
define ptr @l_Lake_Toml_timeTailFn_timeOffsetFn(i8 noundef zeroext %0, i32 noundef %1, ptr noundef %2, ptr noundef %3, ptr noundef %4) #2 {
  %6 = alloca ptr, align 8
  %7 = alloca i8, align 1
  %8 = alloca i32, align 4
  %9 = alloca ptr, align 8
  %10 = alloca ptr, align 8
  %11 = alloca ptr, align 8
  %12 = alloca i32, align 4
  %13 = alloca i8, align 1
  %14 = alloca i32, align 4
  %15 = alloca i8, align 1
  %16 = alloca i32, align 4
  %17 = alloca i8, align 1
  %18 = alloca i32, align 4
  %19 = alloca i8, align 1
  %20 = alloca i32, align 4
  %21 = alloca ptr, align 8
  %22 = alloca ptr, align 8
  %23 = alloca i8, align 1
  %24 = alloca ptr, align 8
  %25 = alloca ptr, align 8
  %26 = alloca ptr, align 8
  %27 = alloca ptr, align 8
  %28 = alloca ptr, align 8
  %29 = alloca i8, align 1
  %30 = alloca ptr, align 8
  %31 = alloca ptr, align 8
  %32 = alloca ptr, align 8
  %33 = alloca ptr, align 8
  %34 = alloca ptr, align 8
  %35 = alloca i8, align 1
  %36 = alloca ptr, align 8
  %37 = alloca ptr, align 8
  %38 = alloca ptr, align 8
  %39 = alloca ptr, align 8
  %40 = alloca i8, align 1
  %41 = alloca ptr, align 8
  %42 = alloca ptr, align 8
  store i8 %0, ptr %7, align 1, !tbaa !14
  store i32 %1, ptr %8, align 4, !tbaa !4
  store ptr %2, ptr %9, align 8, !tbaa !8
  store ptr %3, ptr %10, align 8, !tbaa !8
  store ptr %4, ptr %11, align 8, !tbaa !8
  br label %43

43:                                               ; preds = %5
  call void @llvm.lifetime.start.p0(i64 4, ptr %12) #7
  call void @llvm.lifetime.start.p0(i64 1, ptr %13) #7
  store i32 90, ptr %12, align 4, !tbaa !4
  %44 = load i32, ptr %8, align 4, !tbaa !4
  %45 = load i32, ptr %12, align 4, !tbaa !4
  %46 = call zeroext i8 @lean_uint32_dec_eq(i32 noundef %44, i32 noundef %45)
  store i8 %46, ptr %13, align 1, !tbaa !14
  %47 = load i8, ptr %13, align 1, !tbaa !14
  %48 = zext i8 %47 to i32
  %49 = icmp eq i32 %48, 0
  br i1 %49, label %50, label %140

50:                                               ; preds = %43
  call void @llvm.lifetime.start.p0(i64 4, ptr %14) #7
  call void @llvm.lifetime.start.p0(i64 1, ptr %15) #7
  store i32 122, ptr %14, align 4, !tbaa !4
  %51 = load i32, ptr %8, align 4, !tbaa !4
  %52 = load i32, ptr %14, align 4, !tbaa !4
  %53 = call zeroext i8 @lean_uint32_dec_eq(i32 noundef %51, i32 noundef %52)
  store i8 %53, ptr %15, align 1, !tbaa !14
  %54 = load i8, ptr %15, align 1, !tbaa !14
  %55 = zext i8 %54 to i32
  %56 = icmp eq i32 %55, 0
  br i1 %56, label %57, label %120

57:                                               ; preds = %50
  call void @llvm.lifetime.start.p0(i64 4, ptr %16) #7
  call void @llvm.lifetime.start.p0(i64 1, ptr %17) #7
  store i32 43, ptr %16, align 4, !tbaa !4
  %58 = load i32, ptr %8, align 4, !tbaa !4
  %59 = load i32, ptr %16, align 4, !tbaa !4
  %60 = call zeroext i8 @lean_uint32_dec_eq(i32 noundef %58, i32 noundef %59)
  store i8 %60, ptr %17, align 1, !tbaa !14
  %61 = load i8, ptr %17, align 1, !tbaa !14
  %62 = zext i8 %61 to i32
  %63 = icmp eq i32 %62, 0
  br i1 %63, label %64, label %97

64:                                               ; preds = %57
  call void @llvm.lifetime.start.p0(i64 4, ptr %18) #7
  call void @llvm.lifetime.start.p0(i64 1, ptr %19) #7
  store i32 45, ptr %18, align 4, !tbaa !4
  %65 = load i32, ptr %8, align 4, !tbaa !4
  %66 = load i32, ptr %18, align 4, !tbaa !4
  %67 = call zeroext i8 @lean_uint32_dec_eq(i32 noundef %65, i32 noundef %66)
  store i8 %67, ptr %19, align 1, !tbaa !14
  %68 = load i8, ptr %19, align 1, !tbaa !14
  %69 = zext i8 %68 to i32
  %70 = icmp eq i32 %69, 0
  br i1 %70, label %71, label %74

71:                                               ; preds = %64
  %72 = load ptr, ptr %9, align 8, !tbaa !8
  call void @lean_dec(ptr noundef %72)
  %73 = load ptr, ptr %11, align 8, !tbaa !8
  store ptr %73, ptr %6, align 8
  store i32 1, ptr %20, align 4
  br label %96

74:                                               ; preds = %64
  %75 = load i8, ptr %7, align 1, !tbaa !14
  %76 = zext i8 %75 to i32
  %77 = icmp eq i32 %76, 0
  br i1 %77, label %78, label %88

78:                                               ; preds = %74
  call void @llvm.lifetime.start.p0(i64 8, ptr %21) #7
  call void @llvm.lifetime.start.p0(i64 8, ptr %22) #7
  call void @llvm.lifetime.start.p0(i64 1, ptr %23) #7
  call void @llvm.lifetime.start.p0(i64 8, ptr %24) #7
  %79 = load ptr, ptr %9, align 8, !tbaa !8
  call void @lean_dec(ptr noundef %79)
  %80 = call ptr @lean_box(i64 noundef 0)
  store ptr %80, ptr %21, align 8, !tbaa !8
  %81 = load ptr, ptr @l_Lake_Toml_timeTailFn_timeOffsetFn___closed__1, align 8, !tbaa !8
  store ptr %81, ptr %22, align 8, !tbaa !8
  store i8 1, ptr %23, align 1, !tbaa !14
  %82 = load ptr, ptr %11, align 8, !tbaa !8
  %83 = load ptr, ptr %22, align 8, !tbaa !8
  %84 = load ptr, ptr %21, align 8, !tbaa !8
  %85 = load i8, ptr %23, align 1, !tbaa !14
  %86 = call ptr @l_Lean_Parser_ParserState_mkUnexpectedError(ptr noundef %82, ptr noundef %83, ptr noundef %84, i8 noundef zeroext %85)
  store ptr %86, ptr %24, align 8, !tbaa !8
  %87 = load ptr, ptr %24, align 8, !tbaa !8
  store ptr %87, ptr %6, align 8
  store i32 1, ptr %20, align 4
  call void @llvm.lifetime.end.p0(i64 8, ptr %24) #7
  call void @llvm.lifetime.end.p0(i64 1, ptr %23) #7
  call void @llvm.lifetime.end.p0(i64 8, ptr %22) #7
  call void @llvm.lifetime.end.p0(i64 8, ptr %21) #7
  br label %96

88:                                               ; preds = %74
  call void @llvm.lifetime.start.p0(i64 8, ptr %25) #7
  call void @llvm.lifetime.start.p0(i64 8, ptr %26) #7
  %89 = load ptr, ptr %11, align 8, !tbaa !8
  %90 = load ptr, ptr %9, align 8, !tbaa !8
  %91 = call ptr @l_Lean_Parser_ParserState_setPos(ptr noundef %89, ptr noundef %90)
  store ptr %91, ptr %25, align 8, !tbaa !8
  %92 = load ptr, ptr %10, align 8, !tbaa !8
  %93 = load ptr, ptr %25, align 8, !tbaa !8
  %94 = call ptr @l_Lake_Toml_hourMinFn(ptr noundef %92, ptr noundef %93)
  store ptr %94, ptr %26, align 8, !tbaa !8
  %95 = load ptr, ptr %26, align 8, !tbaa !8
  store ptr %95, ptr %6, align 8
  store i32 1, ptr %20, align 4
  call void @llvm.lifetime.end.p0(i64 8, ptr %26) #7
  call void @llvm.lifetime.end.p0(i64 8, ptr %25) #7
  br label %96

96:                                               ; preds = %88, %78, %71
  call void @llvm.lifetime.end.p0(i64 1, ptr %19) #7
  call void @llvm.lifetime.end.p0(i64 4, ptr %18) #7
  br label %119

97:                                               ; preds = %57
  %98 = load i8, ptr %7, align 1, !tbaa !14
  %99 = zext i8 %98 to i32
  %100 = icmp eq i32 %99, 0
  br i1 %100, label %101, label %111

101:                                              ; preds = %97
  call void @llvm.lifetime.start.p0(i64 8, ptr %27) #7
  call void @llvm.lifetime.start.p0(i64 8, ptr %28) #7
  call void @llvm.lifetime.start.p0(i64 1, ptr %29) #7
  call void @llvm.lifetime.start.p0(i64 8, ptr %30) #7
  %102 = load ptr, ptr %9, align 8, !tbaa !8
  call void @lean_dec(ptr noundef %102)
  %103 = call ptr @lean_box(i64 noundef 0)
  store ptr %103, ptr %27, align 8, !tbaa !8
  %104 = load ptr, ptr @l_Lake_Toml_timeTailFn_timeOffsetFn___closed__1, align 8, !tbaa !8
  store ptr %104, ptr %28, align 8, !tbaa !8
  store i8 1, ptr %29, align 1, !tbaa !14
  %105 = load ptr, ptr %11, align 8, !tbaa !8
  %106 = load ptr, ptr %28, align 8, !tbaa !8
  %107 = load ptr, ptr %27, align 8, !tbaa !8
  %108 = load i8, ptr %29, align 1, !tbaa !14
  %109 = call ptr @l_Lean_Parser_ParserState_mkUnexpectedError(ptr noundef %105, ptr noundef %106, ptr noundef %107, i8 noundef zeroext %108)
  store ptr %109, ptr %30, align 8, !tbaa !8
  %110 = load ptr, ptr %30, align 8, !tbaa !8
  store ptr %110, ptr %6, align 8
  store i32 1, ptr %20, align 4
  call void @llvm.lifetime.end.p0(i64 8, ptr %30) #7
  call void @llvm.lifetime.end.p0(i64 1, ptr %29) #7
  call void @llvm.lifetime.end.p0(i64 8, ptr %28) #7
  call void @llvm.lifetime.end.p0(i64 8, ptr %27) #7
  br label %119

111:                                              ; preds = %97
  call void @llvm.lifetime.start.p0(i64 8, ptr %31) #7
  call void @llvm.lifetime.start.p0(i64 8, ptr %32) #7
  %112 = load ptr, ptr %11, align 8, !tbaa !8
  %113 = load ptr, ptr %9, align 8, !tbaa !8
  %114 = call ptr @l_Lean_Parser_ParserState_setPos(ptr noundef %112, ptr noundef %113)
  store ptr %114, ptr %31, align 8, !tbaa !8
  %115 = load ptr, ptr %10, align 8, !tbaa !8
  %116 = load ptr, ptr %31, align 8, !tbaa !8
  %117 = call ptr @l_Lake_Toml_hourMinFn(ptr noundef %115, ptr noundef %116)
  store ptr %117, ptr %32, align 8, !tbaa !8
  %118 = load ptr, ptr %32, align 8, !tbaa !8
  store ptr %118, ptr %6, align 8
  store i32 1, ptr %20, align 4
  call void @llvm.lifetime.end.p0(i64 8, ptr %32) #7
  call void @llvm.lifetime.end.p0(i64 8, ptr %31) #7
  br label %119

119:                                              ; preds = %111, %101, %96
  call void @llvm.lifetime.end.p0(i64 1, ptr %17) #7
  call void @llvm.lifetime.end.p0(i64 4, ptr %16) #7
  br label %139

120:                                              ; preds = %50
  %121 = load i8, ptr %7, align 1, !tbaa !14
  %122 = zext i8 %121 to i32
  %123 = icmp eq i32 %122, 0
  br i1 %123, label %124, label %134

124:                                              ; preds = %120
  call void @llvm.lifetime.start.p0(i64 8, ptr %33) #7
  call void @llvm.lifetime.start.p0(i64 8, ptr %34) #7
  call void @llvm.lifetime.start.p0(i64 1, ptr %35) #7
  call void @llvm.lifetime.start.p0(i64 8, ptr %36) #7
  %125 = load ptr, ptr %9, align 8, !tbaa !8
  call void @lean_dec(ptr noundef %125)
  %126 = call ptr @lean_box(i64 noundef 0)
  store ptr %126, ptr %33, align 8, !tbaa !8
  %127 = load ptr, ptr @l_Lake_Toml_timeTailFn_timeOffsetFn___closed__1, align 8, !tbaa !8
  store ptr %127, ptr %34, align 8, !tbaa !8
  store i8 1, ptr %35, align 1, !tbaa !14
  %128 = load ptr, ptr %11, align 8, !tbaa !8
  %129 = load ptr, ptr %34, align 8, !tbaa !8
  %130 = load ptr, ptr %33, align 8, !tbaa !8
  %131 = load i8, ptr %35, align 1, !tbaa !14
  %132 = call ptr @l_Lean_Parser_ParserState_mkUnexpectedError(ptr noundef %128, ptr noundef %129, ptr noundef %130, i8 noundef zeroext %131)
  store ptr %132, ptr %36, align 8, !tbaa !8
  %133 = load ptr, ptr %36, align 8, !tbaa !8
  store ptr %133, ptr %6, align 8
  store i32 1, ptr %20, align 4
  call void @llvm.lifetime.end.p0(i64 8, ptr %36) #7
  call void @llvm.lifetime.end.p0(i64 1, ptr %35) #7
  call void @llvm.lifetime.end.p0(i64 8, ptr %34) #7
  call void @llvm.lifetime.end.p0(i64 8, ptr %33) #7
  br label %139

134:                                              ; preds = %120
  call void @llvm.lifetime.start.p0(i64 8, ptr %37) #7
  %135 = load ptr, ptr %11, align 8, !tbaa !8
  %136 = load ptr, ptr %9, align 8, !tbaa !8
  %137 = call ptr @l_Lean_Parser_ParserState_setPos(ptr noundef %135, ptr noundef %136)
  store ptr %137, ptr %37, align 8, !tbaa !8
  %138 = load ptr, ptr %37, align 8, !tbaa !8
  store ptr %138, ptr %6, align 8
  store i32 1, ptr %20, align 4
  call void @llvm.lifetime.end.p0(i64 8, ptr %37) #7
  br label %139

139:                                              ; preds = %134, %124, %119
  call void @llvm.lifetime.end.p0(i64 1, ptr %15) #7
  call void @llvm.lifetime.end.p0(i64 4, ptr %14) #7
  br label %159

140:                                              ; preds = %43
  %141 = load i8, ptr %7, align 1, !tbaa !14
  %142 = zext i8 %141 to i32
  %143 = icmp eq i32 %142, 0
  br i1 %143, label %144, label %154

144:                                              ; preds = %140
  call void @llvm.lifetime.start.p0(i64 8, ptr %38) #7
  call void @llvm.lifetime.start.p0(i64 8, ptr %39) #7
  call void @llvm.lifetime.start.p0(i64 1, ptr %40) #7
  call void @llvm.lifetime.start.p0(i64 8, ptr %41) #7
  %145 = load ptr, ptr %9, align 8, !tbaa !8
  call void @lean_dec(ptr noundef %145)
  %146 = call ptr @lean_box(i64 noundef 0)
  store ptr %146, ptr %38, align 8, !tbaa !8
  %147 = load ptr, ptr @l_Lake_Toml_timeTailFn_timeOffsetFn___closed__1, align 8, !tbaa !8
  store ptr %147, ptr %39, align 8, !tbaa !8
  store i8 1, ptr %40, align 1, !tbaa !14
  %148 = load ptr, ptr %11, align 8, !tbaa !8
  %149 = load ptr, ptr %39, align 8, !tbaa !8
  %150 = load ptr, ptr %38, align 8, !tbaa !8
  %151 = load i8, ptr %40, align 1, !tbaa !14
  %152 = call ptr @l_Lean_Parser_ParserState_mkUnexpectedError(ptr noundef %148, ptr noundef %149, ptr noundef %150, i8 noundef zeroext %151)
  store ptr %152, ptr %41, align 8, !tbaa !8
  %153 = load ptr, ptr %41, align 8, !tbaa !8
  store ptr %153, ptr %6, align 8
  store i32 1, ptr %20, align 4
  call void @llvm.lifetime.end.p0(i64 8, ptr %41) #7
  call void @llvm.lifetime.end.p0(i64 1, ptr %40) #7
  call void @llvm.lifetime.end.p0(i64 8, ptr %39) #7
  call void @llvm.lifetime.end.p0(i64 8, ptr %38) #7
  br label %159

154:                                              ; preds = %140
  call void @llvm.lifetime.start.p0(i64 8, ptr %42) #7
  %155 = load ptr, ptr %11, align 8, !tbaa !8
  %156 = load ptr, ptr %9, align 8, !tbaa !8
  %157 = call ptr @l_Lean_Parser_ParserState_setPos(ptr noundef %155, ptr noundef %156)
  store ptr %157, ptr %42, align 8, !tbaa !8
  %158 = load ptr, ptr %42, align 8, !tbaa !8
  store ptr %158, ptr %6, align 8
  store i32 1, ptr %20, align 4
  call void @llvm.lifetime.end.p0(i64 8, ptr %42) #7
  br label %159

159:                                              ; preds = %154, %144, %139
  call void @llvm.lifetime.end.p0(i64 1, ptr %13) #7
  call void @llvm.lifetime.end.p0(i64 4, ptr %12) #7
  %160 = load ptr, ptr %6, align 8
  ret ptr %160
}