; Function Attrs: nounwind uwtable
define ptr @l_Lake_Toml_timeTailFn_timeOffsetFn(i8 noundef zeroext %0, i32 noundef %1, ptr noundef %2, ptr noundef %3, ptr noundef %4) local_unnamed_addr #1 {
  switch i32 %1, label %6 [
    i32 90, label %66
    i32 122, label %50
    i32 43, label %33
    i32 45, label %16
  ]

6:                                                ; preds = %5
  %7 = ptrtoint ptr %2 to i64
  %8 = and i64 %7, 1
  %.not77 = icmp eq i64 %8, 0
  br i1 %.not77, label %9, label %lean_dec.exit61

9:                                                ; preds = %6
  %10 = load i32, ptr %2, align 4, !tbaa !4
  %11 = icmp sgt i32 %10, 1
  br i1 %11, label %12, label %14, !prof !9

12:                                               ; preds = %9
  %13 = add nsw i32 %10, -1
  store i32 %13, ptr %2, align 4, !tbaa !4
  br label %lean_dec.exit61

14:                                               ; preds = %9
  %.not.i = icmp eq i32 %10, 0
  br i1 %.not.i, label %lean_dec.exit61, label %15

15:                                               ; preds = %14
  tail call void @lean_dec_ref_cold(ptr noundef nonnull %2) #4
  br label %lean_dec.exit61

16:                                               ; preds = %5
  %17 = icmp eq i8 %0, 0
  br i1 %17, label %18, label %30

18:                                               ; preds = %16
  %19 = ptrtoint ptr %2 to i64
  %20 = and i64 %19, 1
  %.not76 = icmp eq i64 %20, 0
  br i1 %.not76, label %21, label %lean_dec.exit60

21:                                               ; preds = %18
  %22 = load i32, ptr %2, align 4, !tbaa !4
  %23 = icmp sgt i32 %22, 1
  br i1 %23, label %24, label %26, !prof !9

24:                                               ; preds = %21
  %25 = add nsw i32 %22, -1
  store i32 %25, ptr %2, align 4, !tbaa !4
  br label %lean_dec.exit60

26:                                               ; preds = %21
  %.not.i62 = icmp eq i32 %22, 0
  br i1 %.not.i62, label %lean_dec.exit60, label %27

27:                                               ; preds = %26
  tail call void @lean_dec_ref_cold(ptr noundef nonnull %2) #4
  br label %lean_dec.exit60

lean_dec.exit60:                                  ; preds = %27, %26, %24, %18
  %28 = load ptr, ptr @l_Lake_Toml_timeTailFn_timeOffsetFn___closed__1, align 8, !tbaa !10
  %29 = tail call ptr @l_Lean_Parser_ParserState_mkUnexpectedError(ptr noundef %4, ptr noundef %28, ptr noundef nonnull inttoptr (i64 1 to ptr), i8 noundef zeroext 1) #4
  br label %lean_dec.exit61

30:                                               ; preds = %16
  %31 = tail call ptr @l_Lean_Parser_ParserState_setPos(ptr noundef %4, ptr noundef %2) #4
  %32 = tail call ptr @l_Lake_Toml_hourMinFn(ptr noundef %3, ptr noundef %31)
  br label %lean_dec.exit61

33:                                               ; preds = %5
  %34 = icmp eq i8 %0, 0
  br i1 %34, label %35, label %47

35:                                               ; preds = %33
  %36 = ptrtoint ptr %2 to i64
  %37 = and i64 %36, 1
  %.not74 = icmp eq i64 %37, 0
  br i1 %.not74, label %38, label %lean_dec.exit59

38:                                               ; preds = %35
  %39 = load i32, ptr %2, align 4, !tbaa !4
  %40 = icmp sgt i32 %39, 1
  br i1 %40, label %41, label %43, !prof !9

41:                                               ; preds = %38
  %42 = add nsw i32 %39, -1
  store i32 %42, ptr %2, align 4, !tbaa !4
  br label %lean_dec.exit59

43:                                               ; preds = %38
  %.not.i64 = icmp eq i32 %39, 0
  br i1 %.not.i64, label %lean_dec.exit59, label %44

44:                                               ; preds = %43
  tail call void @lean_dec_ref_cold(ptr noundef nonnull %2) #4
  br label %lean_dec.exit59

lean_dec.exit59:                                  ; preds = %44, %43, %41, %35
  %45 = load ptr, ptr @l_Lake_Toml_timeTailFn_timeOffsetFn___closed__1, align 8, !tbaa !10
  %46 = tail call ptr @l_Lean_Parser_ParserState_mkUnexpectedError(ptr noundef %4, ptr noundef %45, ptr noundef nonnull inttoptr (i64 1 to ptr), i8 noundef zeroext 1) #4
  br label %lean_dec.exit61

47:                                               ; preds = %33
  %48 = tail call ptr @l_Lean_Parser_ParserState_setPos(ptr noundef %4, ptr noundef %2) #4
  %49 = tail call ptr @l_Lake_Toml_hourMinFn(ptr noundef %3, ptr noundef %48)
  br label %lean_dec.exit61

50:                                               ; preds = %5
  %51 = icmp eq i8 %0, 0
  br i1 %51, label %52, label %64

52:                                               ; preds = %50
  %53 = ptrtoint ptr %2 to i64
  %54 = and i64 %53, 1
  %.not72 = icmp eq i64 %54, 0
  br i1 %.not72, label %55, label %lean_dec.exit58

55:                                               ; preds = %52
  %56 = load i32, ptr %2, align 4, !tbaa !4
  %57 = icmp sgt i32 %56, 1
  br i1 %57, label %58, label %60, !prof !9

58:                                               ; preds = %55
  %59 = add nsw i32 %56, -1
  store i32 %59, ptr %2, align 4, !tbaa !4
  br label %lean_dec.exit58

60:                                               ; preds = %55
  %.not.i66 = icmp eq i32 %56, 0
  br i1 %.not.i66, label %lean_dec.exit58, label %61

61:                                               ; preds = %60
  tail call void @lean_dec_ref_cold(ptr noundef nonnull %2) #4
  br label %lean_dec.exit58

lean_dec.exit58:                                  ; preds = %61, %60, %58, %52
  %62 = load ptr, ptr @l_Lake_Toml_timeTailFn_timeOffsetFn___closed__1, align 8, !tbaa !10
  %63 = tail call ptr @l_Lean_Parser_ParserState_mkUnexpectedError(ptr noundef %4, ptr noundef %62, ptr noundef nonnull inttoptr (i64 1 to ptr), i8 noundef zeroext 1) #4
  br label %lean_dec.exit61

64:                                               ; preds = %50
  %65 = tail call ptr @l_Lean_Parser_ParserState_setPos(ptr noundef %4, ptr noundef %2) #4
  br label %lean_dec.exit61

66:                                               ; preds = %5
  %67 = icmp eq i8 %0, 0
  br i1 %67, label %68, label %80

68:                                               ; preds = %66
  %69 = ptrtoint ptr %2 to i64
  %70 = and i64 %69, 1
  %.not70 = icmp eq i64 %70, 0
  br i1 %.not70, label %71, label %lean_dec.exit

71:                                               ; preds = %68
  %72 = load i32, ptr %2, align 4, !tbaa !4
  %73 = icmp sgt i32 %72, 1
  br i1 %73, label %74, label %76, !prof !9

74:                                               ; preds = %71
  %75 = add nsw i32 %72, -1
  store i32 %75, ptr %2, align 4, !tbaa !4
  br label %lean_dec.exit

76:                                               ; preds = %71
  %.not.i68 = icmp eq i32 %72, 0
  br i1 %.not.i68, label %lean_dec.exit, label %77

77:                                               ; preds = %76
  tail call void @lean_dec_ref_cold(ptr noundef nonnull %2) #4
  br label %lean_dec.exit

lean_dec.exit:                                    ; preds = %77, %76, %74, %68
  %78 = load ptr, ptr @l_Lake_Toml_timeTailFn_timeOffsetFn___closed__1, align 8, !tbaa !10
  %79 = tail call ptr @l_Lean_Parser_ParserState_mkUnexpectedError(ptr noundef %4, ptr noundef %78, ptr noundef nonnull inttoptr (i64 1 to ptr), i8 noundef zeroext 1) #4
  br label %lean_dec.exit61

80:                                               ; preds = %66
  %81 = tail call ptr @l_Lean_Parser_ParserState_setPos(ptr noundef %4, ptr noundef %2) #4
  br label %lean_dec.exit61

lean_dec.exit61:                                  ; preds = %6, %12, %14, %15, %lean_dec.exit58, %64, %lean_dec.exit60, %30, %47, %lean_dec.exit59, %80, %lean_dec.exit
  %.3 = phi ptr [ %79, %lean_dec.exit ], [ %81, %80 ], [ %63, %lean_dec.exit58 ], [ %65, %64 ], [ %46, %lean_dec.exit59 ], [ %49, %47 ], [ %29, %lean_dec.exit60 ], [ %32, %30 ], [ %4, %15 ], [ %4, %14 ], [ %4, %12 ], [ %4, %6 ]
  ret ptr %.3
}